; Function Attrs: mustprogress uwtable
define hidden void @_ZN4cvc56parser5Input13mkStreamInputERSi(ptr noalias nocapture writeonly sret(%"class.std::unique_ptr") align 8 %agg.result, ptr noundef nonnull align 8 dereferenceable(16) %input) local_unnamed_addr #1 align 2 personality ptr @__gxx_personality_v0 {
entry:
  %call = tail call noalias noundef nonnull dereferenceable(16) ptr @_Znwm(i64 noundef 16) #9
  store ptr getelementptr inbounds ({ [6 x ptr] }, ptr @_ZTVN4cvc56parser11StreamInputE, i64 0, i32 0, i64 2), ptr %call, align 8
  %d_input.i = getelementptr inbounds i8, ptr %call, i64 8
  store ptr %input, ptr %d_input.i, align 8
  store ptr %call, ptr %agg.result, align 8
  ret void
}